target datalayout = "e-m:e-p270:32:32-p271:32:32-p272:64:64-i64:64-i128:128-f80:128-n8:16:32:64-S128"
target triple = "x86_64-pc-linux-gnu"

%struct.SDL_GUID = type { [16 x i8] }
%struct.SDL_Gamepad = type { ptr, i32, ptr, i32, i32, ptr, i32, ptr, ptr, ptr, i64, ptr }
%struct.SDL_Joystick = type { i32, ptr, ptr, ptr, %struct.SDL_GUID, i16, i64, i8, i8, i32, ptr, i32, ptr, i32, ptr, i32, ptr, i32, ptr, i32, i32, ptr, i16, i16, i64, i64, i16, i16, i64, i64, i8, i8, i8, i64, i8, i32, i32, i32, i8, i32, ptr, i32, ptr, [3 x [3 x float]], i64, ptr, ptr, i32, i32, ptr }

@SDL_gamepads = internal global ptr null, align 8
@.str.20 = private unnamed_addr constant [38 x i8] c"Couldn't find mapping for device (%u)\00", align 1

; Function Attrs: nounwind uwtable
define hidden ptr @SDL_OpenGamepad_REAL(i32 noundef %0) #0 {
  %2 = alloca ptr, align 8
  %3 = alloca i32, align 4
  %4 = alloca ptr, align 8
  %5 = alloca ptr, align 8
  %6 = alloca ptr, align 8
  %7 = alloca i32, align 4
  store i32 %0, ptr %3, align 4
  call void @llvm.lifetime.start.p0(i64 8, ptr %4) #8
  call void @llvm.lifetime.start.p0(i64 8, ptr %5) #8
  call void @llvm.lifetime.start.p0(i64 8, ptr %6) #8
  store ptr null, ptr %6, align 8
  call void @SDL_LockJoysticks_REAL()
  %8 = load ptr, ptr @SDL_gamepads, align 8
  store ptr %8, ptr %5, align 8
  br label %9

9:                                                ; preds = %27, %1
  %10 = load ptr, ptr %5, align 8
  %11 = icmp ne ptr %10, null
  br i1 %11, label %12, label %31

12:                                               ; preds = %9
  %13 = load i32, ptr %3, align 4
  %14 = load ptr, ptr %5, align 8
  %15 = getelementptr inbounds nuw %struct.SDL_Gamepad, ptr %14, i32 0, i32 0
  %16 = load ptr, ptr %15, align 8
  %17 = getelementptr inbounds nuw %struct.SDL_Joystick, ptr %16, i32 0, i32 0
  %18 = load i32, ptr %17, align 8
  %19 = icmp eq i32 %13, %18
  br i1 %19, label %20, label %27

20:                                               ; preds = %12
  %21 = load ptr, ptr %5, align 8
  store ptr %21, ptr %4, align 8
  %22 = load ptr, ptr %4, align 8
  %23 = getelementptr inbounds nuw %struct.SDL_Gamepad, ptr %22, i32 0, i32 1
  %24 = load i32, ptr %23, align 8
  %25 = add nsw i32 %24, 1
  store i32 %25, ptr %23, align 8
  call void @SDL_UnlockJoysticks_REAL()
  %26 = load ptr, ptr %4, align 8
  store ptr %26, ptr %2, align 8
  store i32 1, ptr %7, align 4
  br label %125

27:                                               ; preds = %12
  %28 = load ptr, ptr %5, align 8
  %29 = getelementptr inbounds nuw %struct.SDL_Gamepad, ptr %28, i32 0, i32 11
  %30 = load ptr, ptr %29, align 8
  store ptr %30, ptr %5, align 8
  br label %9, !llvm.loop !35

31:                                               ; preds = %9
  %32 = load i32, ptr %3, align 4
  %33 = call ptr @SDL_PrivateGetGamepadMapping(i32 noundef %32, i1 noundef zeroext true)
  store ptr %33, ptr %6, align 8
  %34 = load ptr, ptr %6, align 8
  %35 = icmp ne ptr %34, null
  br i1 %35, label %39, label %36

36:                                               ; preds = %31
  %37 = load i32, ptr %3, align 4
  %38 = call zeroext i1 (ptr, ...) @SDL_SetError_REAL(ptr noundef @.str.20, i32 noundef %37)
  call void @SDL_UnlockJoysticks_REAL()
  store ptr null, ptr %2, align 8
  store i32 1, ptr %7, align 4
  br label %125

39:                                               ; preds = %31
  %40 = call noalias ptr @SDL_calloc_REAL(i64 noundef 1, i64 noundef 88) #9
  store ptr %40, ptr %4, align 8
  %41 = load ptr, ptr %4, align 8
  %42 = icmp ne ptr %41, null
  br i1 %42, label %44, label %43

43:                                               ; preds = %39
  call void @SDL_UnlockJoysticks_REAL()
  store ptr null, ptr %2, align 8
  store i32 1, ptr %7, align 4
  br label %125

44:                                               ; preds = %39
  %45 = load ptr, ptr %4, align 8
  call void @SDL_SetObjectValid(ptr noundef %45, i32 noundef 5, i1 noundef zeroext true)
  %46 = load i32, ptr %3, align 4
  %47 = call ptr @SDL_OpenJoystick_REAL(i32 noundef %46)
  %48 = load ptr, ptr %4, align 8
  %49 = getelementptr inbounds nuw %struct.SDL_Gamepad, ptr %48, i32 0, i32 0
  store ptr %47, ptr %49, align 8
  %50 = load ptr, ptr %4, align 8
  %51 = getelementptr inbounds nuw %struct.SDL_Gamepad, ptr %50, i32 0, i32 0
  %52 = load ptr, ptr %51, align 8
  %53 = icmp ne ptr %52, null
  br i1 %53, label %56, label %54

54:                                               ; preds = %44
  %55 = load ptr, ptr %4, align 8
  call void @SDL_free_REAL(ptr noundef %55)
  call void @SDL_UnlockJoysticks_REAL()
  store ptr null, ptr %2, align 8
  store i32 1, ptr %7, align 4
  br label %125

56:                                               ; preds = %44
  %57 = load ptr, ptr %4, align 8
  %58 = getelementptr inbounds nuw %struct.SDL_Gamepad, ptr %57, i32 0, i32 0
  %59 = load ptr, ptr %58, align 8
  %60 = getelementptr inbounds nuw %struct.SDL_Joystick, ptr %59, i32 0, i32 9
  %61 = load i32, ptr %60, align 4
  %62 = icmp ne i32 %61, 0
  br i1 %62, label %63, label %83

63:                                               ; preds = %56
  %64 = load ptr, ptr %4, align 8
  %65 = getelementptr inbounds nuw %struct.SDL_Gamepad, ptr %64, i32 0, i32 0
  %66 = load ptr, ptr %65, align 8
  %67 = getelementptr inbounds nuw %struct.SDL_Joystick, ptr %66, i32 0, i32 9
  %68 = load i32, ptr %67, align 4
  %69 = sext i32 %68 to i64
  %70 = call noalias ptr @SDL_calloc_REAL(i64 noundef %69, i64 noundef 8) #9
  %71 = load ptr, ptr %4, align 8
  %72 = getelementptr inbounds nuw %struct.SDL_Gamepad, ptr %71, i32 0, i32 8
  store ptr %70, ptr %72, align 8
  %73 = load ptr, ptr %4, align 8
  %74 = getelementptr inbounds nuw %struct.SDL_Gamepad, ptr %73, i32 0, i32 8
  %75 = load ptr, ptr %74, align 8
  %76 = icmp ne ptr %75, null
  br i1 %76, label %82, label %77

77:                                               ; preds = %63
  %78 = load ptr, ptr %4, align 8
  %79 = getelementptr inbounds nuw %struct.SDL_Gamepad, ptr %78, i32 0, i32 0
  %80 = load ptr, ptr %79, align 8
  call void @SDL_CloseJoystick_REAL(ptr noundef %80)
  %81 = load ptr, ptr %4, align 8
  call void @SDL_free_REAL(ptr noundef %81)
  call void @SDL_UnlockJoysticks_REAL()
  store ptr null, ptr %2, align 8
  store i32 1, ptr %7, align 4
  br label %125

82:                                               ; preds = %63
  br label %83

83:                                               ; preds = %82, %56
  %84 = load ptr, ptr %4, align 8
  %85 = getelementptr inbounds nuw %struct.SDL_Gamepad, ptr %84, i32 0, i32 0
  %86 = load ptr, ptr %85, align 8
  %87 = getelementptr inbounds nuw %struct.SDL_Joystick, ptr %86, i32 0, i32 13
  %88 = load i32, ptr %87, align 8
  %89 = icmp ne i32 %88, 0
  br i1 %89, label %90, label %113

90:                                               ; preds = %83
  %91 = load ptr, ptr %4, align 8
  %92 = getelementptr inbounds nuw %struct.SDL_Gamepad, ptr %91, i32 0, i32 0
  %93 = load ptr, ptr %92, align 8
  %94 = getelementptr inbounds nuw %struct.SDL_Joystick, ptr %93, i32 0, i32 13
  %95 = load i32, ptr %94, align 8
  %96 = sext i32 %95 to i64
  %97 = call noalias ptr @SDL_calloc_REAL(i64 noundef %96, i64 noundef 1) #9
  %98 = load ptr, ptr %4, align 8
  %99 = getelementptr inbounds nuw %struct.SDL_Gamepad, ptr %98, i32 0, i32 9
  store ptr %97, ptr %99, align 8
  %100 = load ptr, ptr %4, align 8
  %101 = getelementptr inbounds nuw %struct.SDL_Gamepad, ptr %100, i32 0, i32 9
  %102 = load ptr, ptr %101, align 8
  %103 = icmp ne ptr %102, null
  br i1 %103, label %112, label %104

104:                                              ; preds = %90
  %105 = load ptr, ptr %4, align 8
  %106 = getelementptr inbounds nuw %struct.SDL_Gamepad, ptr %105, i32 0, i32 0
  %107 = load ptr, ptr %106, align 8
  call void @SDL_CloseJoystick_REAL(ptr noundef %107)
  %108 = load ptr, ptr %4, align 8
  %109 = getelementptr inbounds nuw %struct.SDL_Gamepad, ptr %108, i32 0, i32 8
  %110 = load ptr, ptr %109, align 8
  call void @SDL_free_REAL(ptr noundef %110)
  %111 = load ptr, ptr %4, align 8
  call void @SDL_free_REAL(ptr noundef %111)
  call void @SDL_UnlockJoysticks_REAL()
  store ptr null, ptr %2, align 8
  store i32 1, ptr %7, align 4
  br label %125

112:                                              ; preds = %90
  br label %113

113:                                              ; preds = %112, %83
  %114 = load ptr, ptr %4, align 8
  %115 = load ptr, ptr %6, align 8
  call void @SDL_PrivateLoadButtonMapping(ptr noundef %114, ptr noundef %115)
  %116 = load ptr, ptr %4, align 8
  %117 = getelementptr inbounds nuw %struct.SDL_Gamepad, ptr %116, i32 0, i32 1
  %118 = load i32, ptr %117, align 8
  %119 = add nsw i32 %118, 1
  store i32 %119, ptr %117, align 8
  %120 = load ptr, ptr @SDL_gamepads, align 8
  %121 = load ptr, ptr %4, align 8
  %122 = getelementptr inbounds nuw %struct.SDL_Gamepad, ptr %121, i32 0, i32 11
  store ptr %120, ptr %122, align 8
  %123 = load ptr, ptr %4, align 8
  store ptr %123, ptr @SDL_gamepads, align 8
  call void @SDL_UnlockJoysticks_REAL()
  %124 = load ptr, ptr %4, align 8
  store ptr %124, ptr %2, align 8
  store i32 1, ptr %7, align 4
  br label %125

125:                                              ; preds = %113, %104, %77, %54, %43, %36, %20
  call void @llvm.lifetime.end.p0(i64 8, ptr %6) #8
  call void @llvm.lifetime.end.p0(i64 8, ptr %5) #8
  call void @llvm.lifetime.end.p0(i64 8, ptr %4) #8
  %126 = load ptr, ptr %2, align 8
  ret ptr %126
}