; Function Attrs: nounwind uwtable
define hidden noundef ptr @SDL_OpenGamepad_REAL(i32 noundef %0) local_unnamed_addr #0 {
  tail call void @SDL_LockJoysticks_REAL() #10
  %.049 = load ptr, ptr @SDL_gamepads, align 8
  %.not50 = icmp eq ptr %.049, null
  br i1 %.not50, label %._crit_edge, label %.lr.ph

.lr.ph:                                           ; preds = %1, %9
  %.051 = phi ptr [ %.0, %9 ], [ %.049, %1 ]
  %2 = load ptr, ptr %.051, align 8
  %3 = load i32, ptr %2, align 8
  %4 = icmp eq i32 %0, %3
  br i1 %4, label %5, label %9

5:                                                ; preds = %.lr.ph
  %6 = getelementptr inbounds nuw i8, ptr %.051, i64 8
  %7 = load i32, ptr %6, align 8
  %8 = add nsw i32 %7, 1
  store i32 %8, ptr %6, align 8
  br label %45

9:                                                ; preds = %.lr.ph
  %10 = getelementptr inbounds nuw i8, ptr %.051, i64 80
  %.0 = load ptr, ptr %10, align 8
  %.not = icmp eq ptr %.0, null
  br i1 %.not, label %._crit_edge, label %.lr.ph, !llvm.loop !43

._crit_edge:                                      ; preds = %9, %1
  %11 = tail call fastcc ptr @SDL_PrivateGetGamepadMapping(i32 noundef %0, i1 noundef zeroext true)
  %.not41 = icmp eq ptr %11, null
  br i1 %.not41, label %12, label %14

12:                                               ; preds = %._crit_edge
  %13 = tail call zeroext i1 (ptr, ...) @SDL_SetError_REAL(ptr noundef nonnull @.str.20, i32 noundef %0) #10
  br label %45

14:                                               ; preds = %._crit_edge
  %15 = tail call noalias dereferenceable_or_null(88) ptr @SDL_calloc_REAL(i64 noundef 1, i64 noundef 88) #11
  %.not42 = icmp eq ptr %15, null
  br i1 %.not42, label %45, label %16

16:                                               ; preds = %14
  tail call void @SDL_SetObjectValid(ptr noundef nonnull %15, i32 noundef 5, i1 noundef zeroext true) #10
  %17 = tail call ptr @SDL_OpenJoystick_REAL(i32 noundef %0) #10
  store ptr %17, ptr %15, align 8
  %.not43 = icmp eq ptr %17, null
  br i1 %.not43, label %18, label %19

18:                                               ; preds = %16
  tail call void @SDL_free_REAL(ptr noundef nonnull %15) #10
  br label %45

19:                                               ; preds = %16
  %20 = getelementptr inbounds nuw i8, ptr %17, i64 68
  %21 = load i32, ptr %20, align 4
  %.not44 = icmp eq i32 %21, 0
  br i1 %.not44, label %27, label %22

22:                                               ; preds = %19
  %23 = sext i32 %21 to i64
  %24 = tail call noalias ptr @SDL_calloc_REAL(i64 noundef %23, i64 noundef 8) #11
  %25 = getelementptr inbounds nuw i8, ptr %15, i64 56
  store ptr %24, ptr %25, align 8
  %.not45 = icmp eq ptr %24, null
  %.pre = load ptr, ptr %15, align 8
  br i1 %.not45, label %26, label %27

26:                                               ; preds = %22
  tail call void @SDL_CloseJoystick_REAL(ptr noundef %.pre) #10
  tail call void @SDL_free_REAL(ptr noundef nonnull %15) #10
  br label %45

27:                                               ; preds = %22, %19
  %28 = phi ptr [ %.pre, %22 ], [ %17, %19 ]
  %29 = getelementptr inbounds nuw i8, ptr %28, i64 96
  %30 = load i32, ptr %29, align 8
  %.not46 = icmp eq i32 %30, 0
  br i1 %.not46, label %39, label %31

31:                                               ; preds = %27
  %32 = sext i32 %30 to i64
  %33 = tail call noalias ptr @SDL_calloc_REAL(i64 noundef %32, i64 noundef 1) #11
  %34 = getelementptr inbounds nuw i8, ptr %15, i64 64
  store ptr %33, ptr %34, align 8
  %.not47 = icmp eq ptr %33, null
  br i1 %.not47, label %35, label %39

35:                                               ; preds = %31
  %36 = load ptr, ptr %15, align 8
  tail call void @SDL_CloseJoystick_REAL(ptr noundef %36) #10
  %37 = getelementptr inbounds nuw i8, ptr %15, i64 56
  %38 = load ptr, ptr %37, align 8
  tail call void @SDL_free_REAL(ptr noundef %38) #10
  tail call void @SDL_free_REAL(ptr noundef nonnull %15) #10
  br label %45

39:                                               ; preds = %31, %27
  tail call fastcc void @SDL_PrivateLoadButtonMapping(ptr noundef %15, ptr noundef nonnull %11)
  %40 = getelementptr inbounds nuw i8, ptr %15, i64 8
  %41 = load i32, ptr %40, align 8
  %42 = add nsw i32 %41, 1
  store i32 %42, ptr %40, align 8
  %43 = load ptr, ptr @SDL_gamepads, align 8
  %44 = getelementptr inbounds nuw i8, ptr %15, i64 80
  store ptr %43, ptr %44, align 8
  store ptr %15, ptr @SDL_gamepads, align 8
  br label %45

45:                                               ; preds = %14, %39, %35, %26, %18, %12, %5
  %.035 = phi ptr [ %.051, %5 ], [ %15, %39 ], [ null, %35 ], [ null, %26 ], [ null, %18 ], [ null, %12 ], [ null, %14 ]
  tail call void @SDL_UnlockJoysticks_REAL() #10
  ret ptr %.035
}